target datalayout = "e-m:e-p270:32:32-p271:32:32-p272:64:64-i64:64-i128:128-f80:128-n8:16:32:64-S128"
target triple = "x86_64-pc-linux-gnu"

%struct.agxbuf = type { %union.anon }
%union.anon = type { %struct.anon }
%struct.anon = type { ptr, i64, i64, [7 x i8], i8 }
%struct.__va_list_tag = type { i32, i32, ptr, ptr }

; Function Attrs: nounwind uwtable
define internal zeroext i1 @agxbuf_is_inline(ptr noundef %0) #0 {
  %2 = alloca ptr, align 8
  store ptr %0, ptr %2, align 8
  %3 = load ptr, ptr %2, align 8
  %4 = getelementptr inbounds %struct.agxbuf, ptr %3, i32 0, i32 0
  %5 = getelementptr inbounds %struct.anon, ptr %4, i32 0, i32 4
  %6 = load i8, ptr %5, align 1
  %7 = zext i8 %6 to i32
  %8 = icmp slt i32 %7, 255
  ret i1 %8
}

; Function Attrs: nounwind uwtable
define internal ptr @agxbnext(ptr noundef %0) #0 {
  %2 = alloca ptr, align 8
  %3 = alloca i64, align 8
  store ptr %0, ptr %2, align 8
  %4 = load ptr, ptr %2, align 8
  %5 = call i64 @agxblen(ptr noundef %4)
  store i64 %5, ptr %3, align 8
  %6 = load ptr, ptr %2, align 8
  %7 = call zeroext i1 @agxbuf_is_inline(ptr noundef %6)
  br i1 %7, label %8, label %13

8:                                                ; preds = %1
  %9 = load ptr, ptr %2, align 8
  %10 = getelementptr inbounds %struct.agxbuf, ptr %9, i32 0, i32 0
  %11 = load i64, ptr %3, align 8
  %12 = getelementptr inbounds [31 x i8], ptr %10, i64 0, i64 %11
  br label %20

13:                                               ; preds = %1
  %14 = load ptr, ptr %2, align 8
  %15 = getelementptr inbounds %struct.agxbuf, ptr %14, i32 0, i32 0
  %16 = getelementptr inbounds %struct.anon, ptr %15, i32 0, i32 0
  %17 = load ptr, ptr %16, align 8
  %18 = load i64, ptr %3, align 8
  %19 = getelementptr inbounds i8, ptr %17, i64 %18
  br label %20

20:                                               ; preds = %13, %8
  %21 = phi ptr [ %12, %8 ], [ %19, %13 ]
  ret ptr %21
}

; Function Attrs: nounwind uwtable
define internal i64 @agxblen(ptr noundef %0) #0 {
  %2 = alloca i64, align 8
  %3 = alloca ptr, align 8
  store ptr %0, ptr %3, align 8
  %4 = load ptr, ptr %3, align 8
  %5 = call zeroext i1 @agxbuf_is_inline(ptr noundef %4)
  br i1 %5, label %6, label %14

6:                                                ; preds = %1
  %7 = load ptr, ptr %3, align 8
  %8 = getelementptr inbounds %struct.agxbuf, ptr %7, i32 0, i32 0
  %9 = getelementptr inbounds %struct.anon, ptr %8, i32 0, i32 4
  %10 = load i8, ptr %9, align 1
  %11 = zext i8 %10 to i32
  %12 = sub nsw i32 %11, 0
  %13 = sext i32 %12 to i64
  store i64 %13, ptr %2, align 8
  br label %19

14:                                               ; preds = %1
  %15 = load ptr, ptr %3, align 8
  %16 = getelementptr inbounds %struct.agxbuf, ptr %15, i32 0, i32 0
  %17 = getelementptr inbounds %struct.anon, ptr %16, i32 0, i32 1
  %18 = load i64, ptr %17, align 8
  store i64 %18, ptr %2, align 8
  br label %19

19:                                               ; preds = %14, %6
  %20 = load i64, ptr %2, align 8
  ret i64 %20
}

; Function Attrs: nounwind uwtable
define internal i64 @agxbsizeof(ptr noundef %0) #0 {
  %2 = alloca i64, align 8
  %3 = alloca ptr, align 8
  store ptr %0, ptr %3, align 8
  %4 = load ptr, ptr %3, align 8
  %5 = call zeroext i1 @agxbuf_is_inline(ptr noundef %4)
  br i1 %5, label %6, label %7

6:                                                ; preds = %1
  store i64 31, ptr %2, align 8
  br label %12

7:                                                ; preds = %1
  %8 = load ptr, ptr %3, align 8
  %9 = getelementptr inbounds %struct.agxbuf, ptr %8, i32 0, i32 0
  %10 = getelementptr inbounds %struct.anon, ptr %9, i32 0, i32 2
  %11 = load i64, ptr %10, align 8
  store i64 %11, ptr %2, align 8
  br label %12

12:                                               ; preds = %7, %6
  %13 = load i64, ptr %2, align 8
  ret i64 %13
}

; Function Attrs: nounwind uwtable
define internal i32 @vagxbprint(ptr noundef %0, ptr noundef %1, ptr noundef %2) #0 {
  %4 = alloca i32, align 4
  %5 = alloca ptr, align 8
  %6 = alloca ptr, align 8
  %7 = alloca ptr, align 8
  %8 = alloca i64, align 8
  %9 = alloca i32, align 4
  %10 = alloca [1 x %struct.__va_list_tag], align 16
  %11 = alloca i32, align 4
  %12 = alloca i64, align 8
  %13 = alloca i64, align 8
  %14 = alloca ptr, align 8
  store ptr %0, ptr %5, align 8
  store ptr %1, ptr %6, align 8
  store ptr %2, ptr %7, align 8
  %15 = getelementptr inbounds [1 x %struct.__va_list_tag], ptr %10, i64 0, i64 0
  %16 = load ptr, ptr %7, align 8
  call void @llvm.va_copy(ptr %15, ptr %16)
  %17 = load ptr, ptr %6, align 8
  %18 = getelementptr inbounds [1 x %struct.__va_list_tag], ptr %10, i64 0, i64 0
  %19 = call i32 @vsnprintf(ptr noundef null, i64 noundef 0, ptr noundef %17, ptr noundef %18) #14
  store i32 %19, ptr %11, align 4
  %20 = getelementptr inbounds [1 x %struct.__va_list_tag], ptr %10, i64 0, i64 0
  call void @llvm.va_end(ptr %20)
  %21 = load i32, ptr %11, align 4
  %22 = icmp slt i32 %21, 0
  br i1 %22, label %23, label %26

23:                                               ; preds = %3
  %24 = load ptr, ptr %7, align 8
  call void @llvm.va_end(ptr %24)
  %25 = load i32, ptr %11, align 4
  store i32 %25, ptr %4, align 4
  br label %79

26:                                               ; preds = %3
  %27 = load i32, ptr %11, align 4
  %28 = sext i32 %27 to i64
  %29 = add i64 %28, 1
  store i64 %29, ptr %8, align 8
  %30 = load ptr, ptr %5, align 8
  %31 = call i64 @agxbsizeof(ptr noundef %30)
  %32 = load ptr, ptr %5, align 8
  %33 = call i64 @agxblen(ptr noundef %32)
  %34 = sub i64 %31, %33
  store i64 %34, ptr %12, align 8
  %35 = load i64, ptr %12, align 8
  %36 = load i64, ptr %8, align 8
  %37 = icmp ult i64 %35, %36
  br i1 %37, label %38, label %44

38:                                               ; preds = %26
  %39 = load i64, ptr %8, align 8
  %40 = load i64, ptr %12, align 8
  %41 = sub i64 %39, %40
  store i64 %41, ptr %13, align 8
  %42 = load ptr, ptr %5, align 8
  %43 = load i64, ptr %13, align 8
  call void @agxbmore(ptr noundef %42, i64 noundef %43)
  br label %44

44:                                               ; preds = %38, %26
  %45 = load ptr, ptr %5, align 8
  %46 = call ptr @agxbnext(ptr noundef %45)
  store ptr %46, ptr %14, align 8
  %47 = load ptr, ptr %14, align 8
  %48 = load i64, ptr %8, align 8
  %49 = load ptr, ptr %6, align 8
  %50 = load ptr, ptr %7, align 8
  %51 = call i32 @vsnprintf(ptr noundef %47, i64 noundef %48, ptr noundef %49, ptr noundef %50) #14
  store i32 %51, ptr %9, align 4
  %52 = load i32, ptr %9, align 4
  %53 = icmp sgt i32 %52, 0
  br i1 %53, label %54, label %77

54:                                               ; preds = %44
  %55 = load ptr, ptr %5, align 8
  %56 = call zeroext i1 @agxbuf_is_inline(ptr noundef %55)
  br i1 %56, label %57, label %68

57:                                               ; preds = %54
  %58 = load i32, ptr %9, align 4
  %59 = trunc i32 %58 to i8
  %60 = zext i8 %59 to i32
  %61 = load ptr, ptr %5, align 8
  %62 = getelementptr inbounds %struct.agxbuf, ptr %61, i32 0, i32 0
  %63 = getelementptr inbounds %struct.anon, ptr %62, i32 0, i32 4
  %64 = load i8, ptr %63, align 1
  %65 = zext i8 %64 to i32
  %66 = add nsw i32 %65, %60
  %67 = trunc i32 %66 to i8
  store i8 %67, ptr %63, align 1
  br label %76

68:                                               ; preds = %54
  %69 = load i32, ptr %9, align 4
  %70 = sext i32 %69 to i64
  %71 = load ptr, ptr %5, align 8
  %72 = getelementptr inbounds %struct.agxbuf, ptr %71, i32 0, i32 0
  %73 = getelementptr inbounds %struct.anon, ptr %72, i32 0, i32 1
  %74 = load i64, ptr %73, align 8
  %75 = add i64 %74, %70
  store i64 %75, ptr %73, align 8
  br label %76

76:                                               ; preds = %68, %57
  br label %77

77:                                               ; preds = %76, %44
  %78 = load i32, ptr %9, align 4
  store i32 %78, ptr %4, align 4
  br label %79

79:                                               ; preds = %77, %23
  %80 = load i32, ptr %4, align 4
  ret i32 %80
}

; Function Attrs: nounwind uwtable
define internal i32 @agxbprint(ptr noundef %0, ptr noundef %1, ...) #0 {
  %3 = alloca ptr, align 8
  %4 = alloca ptr, align 8
  %5 = alloca [1 x %struct.__va_list_tag], align 16
  %6 = alloca i32, align 4
  store ptr %0, ptr %3, align 8
  store ptr %1, ptr %4, align 8
  %7 = getelementptr inbounds [1 x %struct.__va_list_tag], ptr %5, i64 0, i64 0
  call void @llvm.va_start(ptr %7)
  %8 = load ptr, ptr %3, align 8
  %9 = load ptr, ptr %4, align 8
  %10 = getelementptr inbounds [1 x %struct.__va_list_tag], ptr %5, i64 0, i64 0
  %11 = call i32 @vagxbprint(ptr noundef %8, ptr noundef %9, ptr noundef %10)
  store i32 %11, ptr %6, align 4
  %12 = getelementptr inbounds [1 x %struct.__va_list_tag], ptr %5, i64 0, i64 0
  call void @llvm.va_end(ptr %12)
  %13 = load i32, ptr %6, align 4
  ret i32 %13
}