; Function Attrs: nounwind uwtable
define internal void @agxbprint(ptr noundef nonnull captures(none) %0, ptr noundef readonly captures(none) %1, ...) unnamed_addr #1 {
  %3 = alloca [1 x %struct.__va_list_tag], align 16
  %4 = alloca [1 x %struct.__va_list_tag], align 16
  call void @llvm.va_start.p0(ptr nonnull %4)
  call void @llvm.lifetime.start.p0(i64 24, ptr nonnull %3)
  call void @llvm.va_copy.p0(ptr nonnull %3, ptr nonnull %4)
  %5 = call i32 @vsnprintf(ptr noundef null, i64 noundef 0, ptr noundef readonly %1, ptr noundef nonnull %3) #29
  call void @llvm.va_end.p0(ptr nonnull %3)
  %6 = icmp slt i32 %5, 0
  br i1 %6, label %7, label %8

7:                                                ; preds = %2
  call void @llvm.va_end.p0(ptr nonnull %4)
  br label %vagxbprint.exit

8:                                                ; preds = %2
  %narrow.i = add nuw i32 %5, 1
  %9 = zext i32 %narrow.i to i64
  %10 = getelementptr i8, ptr %0, i64 31
  %.val.i.i = load i8, ptr %10, align 1
  %.not.i.i = icmp eq i8 %.val.i.i, -1
  br i1 %.not.i.i, label %12, label %agxbsizeof.exit.i

agxbsizeof.exit.i:                                ; preds = %8
  %11 = zext i8 %.val.i.i to i64
  br label %agxblen.exit.i

12:                                               ; preds = %8
  %13 = getelementptr inbounds nuw i8, ptr %0, i64 16
  %14 = load i64, ptr %13, align 8
  %15 = getelementptr inbounds nuw i8, ptr %0, i64 8
  %16 = load i64, ptr %15, align 8
  br label %agxblen.exit.i

agxblen.exit.i:                                   ; preds = %12, %agxbsizeof.exit.i
  %.0.i34.i = phi i64 [ 31, %agxbsizeof.exit.i ], [ %14, %12 ]
  %.0.i32.i = phi i64 [ %11, %agxbsizeof.exit.i ], [ %16, %12 ]
  %17 = sub i64 %.0.i34.i, %.0.i32.i
  %18 = icmp ult i64 %17, %9
  br i1 %18, label %19, label %21

19:                                               ; preds = %agxblen.exit.i
  %20 = sub nuw nsw i64 %9, %17
  call fastcc void @agxbmore(ptr noundef nonnull %0, i64 noundef %20)
  %.val.i.i.pre.i = load i8, ptr %10, align 1
  br label %21

21:                                               ; preds = %19, %agxblen.exit.i
  %.val.i.i.i = phi i8 [ %.val.i.i.pre.i, %19 ], [ %.val.i.i, %agxblen.exit.i ]
  %.not.i.i.i = icmp eq i8 %.val.i.i.i, -1
  br i1 %.not.i.i.i, label %25, label %22

22:                                               ; preds = %21
  %23 = zext i8 %.val.i.i.i to i64
  %24 = getelementptr inbounds nuw [31 x i8], ptr %0, i64 0, i64 %23
  br label %agxbnext.exit.i

25:                                               ; preds = %21
  %26 = getelementptr inbounds nuw i8, ptr %0, i64 8
  %27 = load i64, ptr %26, align 8
  %28 = load ptr, ptr %0, align 8
  %29 = getelementptr inbounds i8, ptr %28, i64 %27
  br label %agxbnext.exit.i

agxbnext.exit.i:                                  ; preds = %25, %22
  %30 = phi ptr [ %24, %22 ], [ %29, %25 ]
  %31 = call i32 @vsnprintf(ptr noundef %30, i64 noundef %9, ptr noundef readonly %1, ptr noundef nonnull %4) #29
  %32 = icmp sgt i32 %31, 0
  br i1 %32, label %33, label %vagxbprint.exit

33:                                               ; preds = %agxbnext.exit.i
  %.val.i = load i8, ptr %10, align 1
  %.not.i = icmp eq i8 %.val.i, -1
  br i1 %.not.i, label %37, label %34

34:                                               ; preds = %33
  %35 = trunc i32 %31 to i8
  %36 = add i8 %.val.i, %35
  store i8 %36, ptr %10, align 1
  br label %vagxbprint.exit

37:                                               ; preds = %33
  %38 = zext nneg i32 %31 to i64
  %39 = getelementptr inbounds nuw i8, ptr %0, i64 8
  %40 = load i64, ptr %39, align 8
  %41 = add i64 %40, %38
  store i64 %41, ptr %39, align 8
  br label %vagxbprint.exit

vagxbprint.exit:                                  ; preds = %7, %agxbnext.exit.i, %34, %37
  call void @llvm.lifetime.end.p0(i64 24, ptr nonnull %3)
  call void @llvm.va_end.p0(ptr nonnull %4)
  ret void
}